target datalayout = "e-m:e-p270:32:32-p271:32:32-p272:64:64-i64:64-i128:128-f80:128-n8:16:32:64-S128"
target triple = "x86_64-pc-linux-gnu"

%struct.TupleTableSlotOps = type { i64, ptr, ptr, ptr, ptr, ptr, ptr, ptr, ptr, ptr, ptr, ptr, ptr }
%struct.ResultRelInfo = type { i32, i32, ptr, i32, ptr, ptr, i16, ptr, i8, ptr, ptr, ptr, i8, i8, ptr, ptr, ptr, ptr, ptr, ptr, ptr, ptr, ptr, ptr, i8, i32, i32, i32, ptr, ptr, ptr, ptr, ptr, ptr, ptr, i32, i32, ptr, ptr, ptr, ptr, [3 x ptr], ptr, ptr, ptr, i8, ptr, i8, ptr, ptr, ptr, ptr }
%struct.RelationData = type { %struct.RelFileLocator, ptr, i32, i32, i8, i8, i8, i8, i8, i32, i32, i32, i32, ptr, ptr, i32, %struct.LockInfoData, ptr, ptr, ptr, ptr, ptr, i8, ptr, ptr, ptr, ptr, ptr, ptr, i32, ptr, i8, ptr, ptr, i32, i8, i32, ptr, i8, ptr, ptr, ptr, ptr, ptr, ptr, ptr, i32, ptr, ptr, ptr, ptr, ptr, ptr, ptr, ptr, ptr, ptr, ptr, ptr, ptr, ptr, ptr, ptr, ptr, ptr, ptr, i32, i8, ptr }
%struct.RelFileLocator = type { i32, i32, i32 }
%struct.LockInfoData = type { %struct.LockRelId }
%struct.LockRelId = type { i32, i32 }
%struct.TriggerDesc = type { ptr, i32, i8, i8, i8, i8, i8, i8, i8, i8, i8, i8, i8, i8, i8, i8, i8, i8, i8, i8, i8, i8, i8 }
%struct.EState = type { i32, i32, ptr, ptr, ptr, i32, ptr, ptr, ptr, ptr, ptr, ptr, ptr, ptr, ptr, ptr, i32, ptr, ptr, ptr, ptr, ptr, ptr, ptr, ptr, ptr, ptr, i64, i64, i32, i32, i8, ptr, ptr, ptr, ptr, ptr, i8, i32, i32, ptr, i32, ptr, ptr, ptr, ptr }
%struct.nameData = type { [64 x i8] }
%struct.FormData_pg_class = type { i32, %struct.nameData, i32, i32, i32, i32, i32, i32, i32, i32, float, i32, i32, i8, i8, i8, i8, i16, i16, i8, i8, i8, i8, i8, i8, i8, i8, i32, i32, i32 }
%struct.TupleTableSlot = type { i32, i16, i16, ptr, ptr, ptr, ptr, ptr, %struct.ItemPointerData, i32 }
%struct.ItemPointerData = type { %struct.BlockIdData, i16 }
%struct.BlockIdData = type { i16, i16 }
%struct.ModifyTableState = type { %struct.PlanState, i32, i8, i8, i32, ptr, ptr, %struct.EPQState, i8, i32, i32, i32, ptr, ptr, ptr, ptr, ptr, i32, ptr, ptr, double, double, double, ptr, ptr, ptr }
%struct.PlanState = type { i32, ptr, ptr, ptr, ptr, ptr, ptr, ptr, ptr, ptr, ptr, ptr, ptr, ptr, ptr, ptr, ptr, ptr, i8, ptr, ptr, ptr, ptr, ptr, i8, i8, i8, i8, i8, i8, i8, i8 }
%struct.EPQState = type { ptr, i32, ptr, ptr, ptr, ptr, ptr, ptr, ptr, ptr, ptr, ptr, ptr }
%struct.List = type { i32, i32, i32, ptr, [0 x %union.ListCell] }
%union.ListCell = type { ptr }
%struct.ModifyTableContext = type { ptr, ptr, ptr, ptr, %struct.TM_FailureData, ptr, ptr }
%struct.TM_FailureData = type { %struct.ItemPointerData, i32, i32, i8 }
%struct.ForBothState = type { ptr, ptr, i32 }

; Function Attrs: nounwind uwtable
define internal void @ExecPendingInserts(ptr noundef %0) #0 {
  %2 = alloca ptr, align 8
  %3 = alloca ptr, align 8
  %4 = alloca ptr, align 8
  %5 = alloca %struct.ForBothState, align 8
  %6 = alloca ptr, align 8
  %7 = alloca ptr, align 8
  store ptr %0, ptr %2, align 8
  call void @llvm.lifetime.start.p0(i64 8, ptr %3) #8
  call void @llvm.lifetime.start.p0(i64 8, ptr %4) #8
  call void @llvm.lifetime.start.p0(i64 24, ptr %5) #8
  %8 = getelementptr inbounds nuw %struct.ForBothState, ptr %5, i32 0, i32 0
  %9 = load ptr, ptr %2, align 8
  %10 = getelementptr inbounds nuw %struct.EState, ptr %9, i32 0, i32 44
  %11 = load ptr, ptr %10, align 8
  store ptr %11, ptr %8, align 8
  %12 = getelementptr inbounds nuw %struct.ForBothState, ptr %5, i32 0, i32 1
  %13 = load ptr, ptr %2, align 8
  %14 = getelementptr inbounds nuw %struct.EState, ptr %13, i32 0, i32 45
  %15 = load ptr, ptr %14, align 8
  store ptr %15, ptr %12, align 8
  %16 = getelementptr inbounds nuw %struct.ForBothState, ptr %5, i32 0, i32 2
  store i32 0, ptr %16, align 8
  %17 = getelementptr i8, ptr %5, i64 20
  call void @llvm.memset.p0.i64(ptr align 4 %17, i8 0, i64 4, i1 false)
  br label %18

18:                                               ; preds = %94, %1
  %19 = getelementptr inbounds nuw %struct.ForBothState, ptr %5, i32 0, i32 0
  %20 = load ptr, ptr %19, align 8
  %21 = icmp ne ptr %20, null
  br i1 %21, label %22, label %39

22:                                               ; preds = %18
  %23 = getelementptr inbounds nuw %struct.ForBothState, ptr %5, i32 0, i32 2
  %24 = load i32, ptr %23, align 8
  %25 = getelementptr inbounds nuw %struct.ForBothState, ptr %5, i32 0, i32 0
  %26 = load ptr, ptr %25, align 8
  %27 = getelementptr inbounds nuw %struct.List, ptr %26, i32 0, i32 1
  %28 = load i32, ptr %27, align 4
  %29 = icmp slt i32 %24, %28
  br i1 %29, label %30, label %39

30:                                               ; preds = %22
  %31 = getelementptr inbounds nuw %struct.ForBothState, ptr %5, i32 0, i32 0
  %32 = load ptr, ptr %31, align 8
  %33 = getelementptr inbounds nuw %struct.List, ptr %32, i32 0, i32 3
  %34 = load ptr, ptr %33, align 8
  %35 = getelementptr inbounds nuw %struct.ForBothState, ptr %5, i32 0, i32 2
  %36 = load i32, ptr %35, align 8
  %37 = sext i32 %36 to i64
  %38 = getelementptr inbounds %union.ListCell, ptr %34, i64 %37
  br label %40

39:                                               ; preds = %22, %18
  br label %40

40:                                               ; preds = %39, %30
  %41 = phi ptr [ %38, %30 ], [ null, %39 ]
  store ptr %41, ptr %3, align 8
  %42 = getelementptr inbounds nuw %struct.ForBothState, ptr %5, i32 0, i32 1
  %43 = load ptr, ptr %42, align 8
  %44 = icmp ne ptr %43, null
  br i1 %44, label %45, label %62

45:                                               ; preds = %40
  %46 = getelementptr inbounds nuw %struct.ForBothState, ptr %5, i32 0, i32 2
  %47 = load i32, ptr %46, align 8
  %48 = getelementptr inbounds nuw %struct.ForBothState, ptr %5, i32 0, i32 1
  %49 = load ptr, ptr %48, align 8
  %50 = getelementptr inbounds nuw %struct.List, ptr %49, i32 0, i32 1
  %51 = load i32, ptr %50, align 4
  %52 = icmp slt i32 %47, %51
  br i1 %52, label %53, label %62

53:                                               ; preds = %45
  %54 = getelementptr inbounds nuw %struct.ForBothState, ptr %5, i32 0, i32 1
  %55 = load ptr, ptr %54, align 8
  %56 = getelementptr inbounds nuw %struct.List, ptr %55, i32 0, i32 3
  %57 = load ptr, ptr %56, align 8
  %58 = getelementptr inbounds nuw %struct.ForBothState, ptr %5, i32 0, i32 2
  %59 = load i32, ptr %58, align 8
  %60 = sext i32 %59 to i64
  %61 = getelementptr inbounds %union.ListCell, ptr %57, i64 %60
  br label %63

62:                                               ; preds = %45, %40
  br label %63

63:                                               ; preds = %62, %53
  %64 = phi ptr [ %61, %53 ], [ null, %62 ]
  store ptr %64, ptr %4, align 8
  %65 = load ptr, ptr %3, align 8
  %66 = icmp ne ptr %65, null
  br i1 %66, label %67, label %70

67:                                               ; preds = %63
  %68 = load ptr, ptr %4, align 8
  %69 = icmp ne ptr %68, null
  br label %70

70:                                               ; preds = %67, %63
  %71 = phi i1 [ false, %63 ], [ %69, %67 ]
  br i1 %71, label %73, label %72

72:                                               ; preds = %70
  call void @llvm.lifetime.end.p0(i64 24, ptr %5) #8
  br label %98

73:                                               ; preds = %70
  call void @llvm.lifetime.start.p0(i64 8, ptr %6) #8
  %74 = load ptr, ptr %3, align 8
  %75 = load ptr, ptr %74, align 8
  store ptr %75, ptr %6, align 8
  call void @llvm.lifetime.start.p0(i64 8, ptr %7) #8
  %76 = load ptr, ptr %4, align 8
  %77 = load ptr, ptr %76, align 8
  store ptr %77, ptr %7, align 8
  %78 = load ptr, ptr %7, align 8
  %79 = load ptr, ptr %6, align 8
  %80 = load ptr, ptr %6, align 8
  %81 = getelementptr inbounds nuw %struct.ResultRelInfo, ptr %80, i32 0, i32 28
  %82 = load ptr, ptr %81, align 8
  %83 = load ptr, ptr %6, align 8
  %84 = getelementptr inbounds nuw %struct.ResultRelInfo, ptr %83, i32 0, i32 29
  %85 = load ptr, ptr %84, align 8
  %86 = load ptr, ptr %6, align 8
  %87 = getelementptr inbounds nuw %struct.ResultRelInfo, ptr %86, i32 0, i32 25
  %88 = load i32, ptr %87, align 4
  %89 = load ptr, ptr %2, align 8
  %90 = load ptr, ptr %7, align 8
  %91 = getelementptr inbounds nuw %struct.ModifyTableState, ptr %90, i32 0, i32 2
  %92 = load i8, ptr %91, align 4, !range !4, !noundef !5
  %93 = trunc i8 %92 to i1
  call void @ExecBatchInsert(ptr noundef %78, ptr noundef %79, ptr noundef %82, ptr noundef %85, i32 noundef %88, ptr noundef %89, i1 noundef zeroext %93)
  call void @llvm.lifetime.end.p0(i64 8, ptr %7) #8
  call void @llvm.lifetime.end.p0(i64 8, ptr %6) #8
  br label %94

94:                                               ; preds = %73
  %95 = getelementptr inbounds nuw %struct.ForBothState, ptr %5, i32 0, i32 2
  %96 = load i32, ptr %95, align 8
  %97 = add i32 %96, 1
  store i32 %97, ptr %95, align 8
  br label %18, !llvm.loop !24

98:                                               ; preds = %72
  %99 = load ptr, ptr %2, align 8
  %100 = getelementptr inbounds nuw %struct.EState, ptr %99, i32 0, i32 44
  %101 = load ptr, ptr %100, align 8
  call void @list_free(ptr noundef %101)
  %102 = load ptr, ptr %2, align 8
  %103 = getelementptr inbounds nuw %struct.EState, ptr %102, i32 0, i32 45
  %104 = load ptr, ptr %103, align 8
  call void @list_free(ptr noundef %104)
  %105 = load ptr, ptr %2, align 8
  %106 = getelementptr inbounds nuw %struct.EState, ptr %105, i32 0, i32 44
  store ptr null, ptr %106, align 8
  %107 = load ptr, ptr %2, align 8
  %108 = getelementptr inbounds nuw %struct.EState, ptr %107, i32 0, i32 45
  store ptr null, ptr %108, align 8
  call void @llvm.lifetime.end.p0(i64 8, ptr %4) #8
  call void @llvm.lifetime.end.p0(i64 8, ptr %3) #8
  ret void
}

; Function Attrs: inlinehint nounwind uwtable
define internal void @ExecMaterializeSlot(ptr noundef %0) #3 {
  %2 = alloca ptr, align 8
  store ptr %0, ptr %2, align 8
  %3 = load ptr, ptr %2, align 8
  %4 = getelementptr inbounds nuw %struct.TupleTableSlot, ptr %3, i32 0, i32 3
  %5 = load ptr, ptr %4, align 8
  %6 = getelementptr inbounds nuw %struct.TupleTableSlotOps, ptr %5, i32 0, i32 7
  %7 = load ptr, ptr %6, align 8
  %8 = load ptr, ptr %2, align 8
  call void %7(ptr noundef %8)
  ret void
}

; Function Attrs: nounwind uwtable
define internal zeroext i1 @ExecUpdatePrologue(ptr noundef %0, ptr noundef %1, ptr noundef %2, ptr noundef %3, ptr noundef %4, ptr noundef %5) #0 {
  %7 = alloca i1, align 1
  %8 = alloca ptr, align 8
  %9 = alloca ptr, align 8
  %10 = alloca ptr, align 8
  %11 = alloca ptr, align 8
  %12 = alloca ptr, align 8
  %13 = alloca ptr, align 8
  %14 = alloca ptr, align 8
  %15 = alloca i32, align 4
  store ptr %0, ptr %8, align 8
  store ptr %1, ptr %9, align 8
  store ptr %2, ptr %10, align 8
  store ptr %3, ptr %11, align 8
  store ptr %4, ptr %12, align 8
  store ptr %5, ptr %13, align 8
  call void @llvm.lifetime.start.p0(i64 8, ptr %14) #8
  %16 = load ptr, ptr %9, align 8
  %17 = getelementptr inbounds nuw %struct.ResultRelInfo, ptr %16, i32 0, i32 2
  %18 = load ptr, ptr %17, align 8
  store ptr %18, ptr %14, align 8
  %19 = load ptr, ptr %13, align 8
  %20 = icmp ne ptr %19, null
  br i1 %20, label %21, label %23

21:                                               ; preds = %6
  %22 = load ptr, ptr %13, align 8
  store i32 0, ptr %22, align 4
  br label %23

23:                                               ; preds = %21, %6
  %24 = load ptr, ptr %12, align 8
  call void @ExecMaterializeSlot(ptr noundef %24)
  %25 = load ptr, ptr %14, align 8
  %26 = getelementptr inbounds nuw %struct.RelationData, ptr %25, i32 0, i32 13
  %27 = load ptr, ptr %26, align 8
  %28 = getelementptr inbounds nuw %struct.FormData_pg_class, ptr %27, i32 0, i32 13
  %29 = load i8, ptr %28, align 4, !range !4, !noundef !5
  %30 = trunc i8 %29 to i1
  br i1 %30, label %31, label %38

31:                                               ; preds = %23
  %32 = load ptr, ptr %9, align 8
  %33 = getelementptr inbounds nuw %struct.ResultRelInfo, ptr %32, i32 0, i32 4
  %34 = load ptr, ptr %33, align 8
  %35 = icmp eq ptr %34, null
  br i1 %35, label %36, label %38

36:                                               ; preds = %31
  %37 = load ptr, ptr %9, align 8
  call void @ExecOpenIndices(ptr noundef %37, i1 noundef zeroext false)
  br label %38

38:                                               ; preds = %36, %31, %23
  %39 = load ptr, ptr %9, align 8
  %40 = getelementptr inbounds nuw %struct.ResultRelInfo, ptr %39, i32 0, i32 14
  %41 = load ptr, ptr %40, align 8
  %42 = icmp ne ptr %41, null
  br i1 %42, label %43, label %76

43:                                               ; preds = %38
  %44 = load ptr, ptr %9, align 8
  %45 = getelementptr inbounds nuw %struct.ResultRelInfo, ptr %44, i32 0, i32 14
  %46 = load ptr, ptr %45, align 8
  %47 = getelementptr inbounds nuw %struct.TriggerDesc, ptr %46, i32 0, i32 7
  %48 = load i8, ptr %47, align 1, !range !4, !noundef !5
  %49 = trunc i8 %48 to i1
  br i1 %49, label %50, label %76

50:                                               ; preds = %43
  %51 = load ptr, ptr %8, align 8
  %52 = getelementptr inbounds nuw %struct.ModifyTableContext, ptr %51, i32 0, i32 2
  %53 = load ptr, ptr %52, align 8
  %54 = getelementptr inbounds nuw %struct.EState, ptr %53, i32 0, i32 44
  %55 = load ptr, ptr %54, align 8
  %56 = icmp ne ptr %55, null
  br i1 %56, label %57, label %61

57:                                               ; preds = %50
  %58 = load ptr, ptr %8, align 8
  %59 = getelementptr inbounds nuw %struct.ModifyTableContext, ptr %58, i32 0, i32 2
  %60 = load ptr, ptr %59, align 8
  call void @ExecPendingInserts(ptr noundef %60)
  br label %61

61:                                               ; preds = %57, %50
  %62 = load ptr, ptr %8, align 8
  %63 = getelementptr inbounds nuw %struct.ModifyTableContext, ptr %62, i32 0, i32 2
  %64 = load ptr, ptr %63, align 8
  %65 = load ptr, ptr %8, align 8
  %66 = getelementptr inbounds nuw %struct.ModifyTableContext, ptr %65, i32 0, i32 1
  %67 = load ptr, ptr %66, align 8
  %68 = load ptr, ptr %9, align 8
  %69 = load ptr, ptr %10, align 8
  %70 = load ptr, ptr %11, align 8
  %71 = load ptr, ptr %12, align 8
  %72 = load ptr, ptr %13, align 8
  %73 = load ptr, ptr %8, align 8
  %74 = getelementptr inbounds nuw %struct.ModifyTableContext, ptr %73, i32 0, i32 4
  %75 = call zeroext i1 @ExecBRUpdateTriggers(ptr noundef %64, ptr noundef %67, ptr noundef %68, ptr noundef %69, ptr noundef %70, ptr noundef %71, ptr noundef %72, ptr noundef %74)
  store i1 %75, ptr %7, align 1
  store i32 1, ptr %15, align 4
  br label %77

76:                                               ; preds = %43, %38
  store i1 true, ptr %7, align 1
  store i32 1, ptr %15, align 4
  br label %77

77:                                               ; preds = %76, %61
  call void @llvm.lifetime.end.p0(i64 8, ptr %14) #8
  %78 = load i1, ptr %7, align 1
  ret i1 %78
}