; Function Attrs: nounwind uwtable
define internal fastcc zeroext i1 @ExecUpdatePrologue(ptr noundef nonnull %0, ptr noundef %1, ptr noundef %2, ptr noundef %3, ptr noundef %4, ptr noundef %5) unnamed_addr #0 {
  %7 = getelementptr inbounds nuw i8, ptr %1, i64 8
  %8 = load ptr, ptr %7, align 8
  %.not = icmp eq ptr %5, null
  br i1 %.not, label %10, label %9

9:                                                ; preds = %6
  store i32 0, ptr %5, align 4
  br label %10

10:                                               ; preds = %9, %6
  %11 = getelementptr inbounds nuw i8, ptr %4, i64 8
  %12 = load ptr, ptr %11, align 8
  %13 = getelementptr inbounds nuw i8, ptr %12, i64 56
  %14 = load ptr, ptr %13, align 8
  tail call void %14(ptr noundef %4) #9
  %15 = getelementptr inbounds nuw i8, ptr %8, i64 56
  %16 = load ptr, ptr %15, align 8
  %17 = getelementptr inbounds nuw i8, ptr %16, i64 112
  %18 = load i8, ptr %17, align 4, !range !4, !noundef !5
  %19 = trunc nuw i8 %18 to i1
  br i1 %19, label %20, label %25

20:                                               ; preds = %10
  %21 = getelementptr inbounds nuw i8, ptr %1, i64 24
  %22 = load ptr, ptr %21, align 8
  %23 = icmp eq ptr %22, null
  br i1 %23, label %24, label %25

24:                                               ; preds = %20
  tail call void @ExecOpenIndices(ptr noundef nonnull %1, i1 noundef zeroext false) #9
  br label %25

25:                                               ; preds = %24, %20, %10
  %26 = getelementptr inbounds nuw i8, ptr %1, i64 96
  %27 = load ptr, ptr %26, align 8
  %.not22 = icmp eq ptr %27, null
  br i1 %.not22, label %81, label %28

28:                                               ; preds = %25
  %29 = getelementptr inbounds nuw i8, ptr %27, i64 17
  %30 = load i8, ptr %29, align 1, !range !4, !noundef !5
  %31 = trunc nuw i8 %30 to i1
  br i1 %31, label %32, label %81

32:                                               ; preds = %28
  %33 = getelementptr inbounds nuw i8, ptr %0, i64 16
  %34 = load ptr, ptr %33, align 8
  %35 = getelementptr inbounds nuw i8, ptr %34, i64 328
  %36 = load ptr, ptr %35, align 8
  %.not23 = icmp eq ptr %36, null
  br i1 %.not23, label %75, label %37

37:                                               ; preds = %32
  %38 = getelementptr inbounds nuw i8, ptr %34, i64 336
  %39 = load ptr, ptr %38, align 8
  %40 = getelementptr inbounds nuw i8, ptr %39, i64 4
  %.not28.i = icmp eq ptr %39, null
  %41 = getelementptr inbounds nuw i8, ptr %36, i64 4
  %42 = getelementptr inbounds nuw i8, ptr %36, i64 16
  %43 = getelementptr inbounds nuw i8, ptr %39, i64 16
  br i1 %.not28.i, label %ExecPendingInserts.exit, label %.split.split.i

.split.split.i:                                   ; preds = %37, %60
  %indvars.iv.i = phi i64 [ %indvars.iv.next.i, %60 ], [ 0, %37 ]
  %44 = load i32, ptr %41, align 4
  %45 = sext i32 %44 to i64
  %46 = icmp slt i64 %indvars.iv.i, %45
  br i1 %46, label %47, label %50

47:                                               ; preds = %.split.split.i
  %48 = load ptr, ptr %42, align 8
  %49 = getelementptr inbounds nuw %union.ListCell, ptr %48, i64 %indvars.iv.i
  br label %50

50:                                               ; preds = %47, %.split.split.i
  %51 = phi ptr [ %49, %47 ], [ null, %.split.split.i ]
  %52 = load i32, ptr %40, align 4
  %53 = sext i32 %52 to i64
  %54 = icmp slt i64 %indvars.iv.i, %53
  br i1 %54, label %55, label %.thread.loopexit.i

55:                                               ; preds = %50
  %56 = load ptr, ptr %43, align 8
  %57 = icmp ne ptr %51, null
  %58 = icmp ne ptr %56, null
  %59 = select i1 %57, i1 %58, i1 false
  br i1 %59, label %60, label %.thread.loopexit.i

.thread.loopexit.i:                               ; preds = %55, %50
  %.pre.i = load ptr, ptr %35, align 8
  br label %ExecPendingInserts.exit

60:                                               ; preds = %55
  %61 = getelementptr inbounds nuw %union.ListCell, ptr %56, i64 %indvars.iv.i
  %62 = load ptr, ptr %51, align 8
  %63 = load ptr, ptr %61, align 8
  %64 = getelementptr inbounds nuw i8, ptr %62, i64 192
  %65 = load ptr, ptr %64, align 8
  %66 = getelementptr inbounds nuw i8, ptr %62, i64 200
  %67 = load ptr, ptr %66, align 8
  %68 = getelementptr inbounds nuw i8, ptr %62, i64 180
  %69 = load i32, ptr %68, align 4
  %70 = getelementptr inbounds nuw i8, ptr %63, i64 204
  %71 = load i8, ptr %70, align 4, !range !4, !noundef !5
  %72 = trunc nuw i8 %71 to i1
  tail call fastcc void @ExecBatchInsert(ptr noundef %63, ptr noundef %62, ptr noundef %65, ptr noundef %67, i32 noundef %69, ptr noundef %34, i1 noundef zeroext %72)
  %indvars.iv.next.i = add nuw nsw i64 %indvars.iv.i, 1
  br label %.split.split.i, !llvm.loop !15

ExecPendingInserts.exit:                          ; preds = %37, %.thread.loopexit.i
  %73 = phi ptr [ %.pre.i, %.thread.loopexit.i ], [ %36, %37 ]
  tail call void @list_free(ptr noundef %73) #9
  %74 = load ptr, ptr %38, align 8
  tail call void @list_free(ptr noundef %74) #9
  tail call void @llvm.memset.p0.i64(ptr noundef nonnull align 8 dereferenceable(16) %35, i8 0, i64 16, i1 false)
  %.pre = load ptr, ptr %33, align 8
  br label %75

75:                                               ; preds = %ExecPendingInserts.exit, %32
  %76 = phi ptr [ %.pre, %ExecPendingInserts.exit ], [ %34, %32 ]
  %77 = getelementptr inbounds nuw i8, ptr %0, i64 8
  %78 = load ptr, ptr %77, align 8
  %79 = getelementptr inbounds nuw i8, ptr %0, i64 32
  %80 = tail call zeroext i1 @ExecBRUpdateTriggers(ptr noundef %76, ptr noundef %78, ptr noundef %1, ptr noundef %2, ptr noundef %3, ptr noundef %4, ptr noundef %5, ptr noundef nonnull %79) #9
  br label %81

81:                                               ; preds = %25, %28, %75
  %.0 = phi i1 [ %80, %75 ], [ true, %28 ], [ true, %25 ]
  ret i1 %.0
}